target datalayout = "e-m:e-p270:32:32-p271:32:32-p272:64:64-i64:64-i128:128-f80:128-n8:16:32:64-S128"
target triple = "x86_64-pc-linux-gnu"

%struct._typeobject = type { %struct.PyVarObject, ptr, i64, i64, ptr, i64, ptr, ptr, ptr, ptr, ptr, ptr, ptr, ptr, ptr, ptr, ptr, ptr, ptr, i64, ptr, ptr, ptr, ptr, i64, ptr, ptr, ptr, ptr, ptr, ptr, ptr, ptr, ptr, i64, ptr, ptr, ptr, ptr, ptr, ptr, ptr, ptr, ptr, ptr, ptr, i32, ptr, ptr, i8, i16 }
%struct.PyVarObject = type { %struct._object, i64 }
%struct._object = type { %union.anon, ptr }
%union.anon = type { i64 }
%struct._ts = type { ptr, ptr, ptr, i64, %struct.anon.0, i32, i32, i32, i32, i32, i32, i32, i32, ptr, ptr, ptr, ptr, ptr, ptr, ptr, ptr, i32, ptr, i64, i64, ptr, i64, i32, ptr, ptr, ptr, i64, i64, ptr, ptr, ptr, %struct._err_stackitem, ptr, i64, ptr, ptr }
%struct.anon.0 = type { i32 }
%struct._err_stackitem = type { ptr, ptr }
%struct.instruction_sequence = type { %struct._object, ptr, i32, i32, i32, ptr, i32, ptr }
%struct.anon = type { i32, i32 }

; Function Attrs: alwaysinline nounwind uwtable
define internal i32 @_Py_IsImmortal(ptr noundef %0) #5 {
  %2 = alloca ptr, align 8
  store ptr %0, ptr %2, align 8, !tbaa !41
  %3 = load ptr, ptr %2, align 8, !tbaa !41
  %4 = getelementptr inbounds nuw %struct._object, ptr %3, i32 0, i32 0
  %5 = getelementptr inbounds nuw %struct.anon, ptr %4, i32 0, i32 0
  %6 = load i32, ptr %5, align 8, !tbaa !66
  %7 = icmp slt i32 %6, 0
  %8 = zext i1 %7 to i32
  ret i32 %8
}

; Function Attrs: alwaysinline nounwind uwtable
define internal void @Py_DECREF(ptr noundef %0) #5 {
  %2 = alloca ptr, align 8
  store ptr %0, ptr %2, align 8, !tbaa !41
  %3 = load ptr, ptr %2, align 8, !tbaa !41
  %4 = call i32 @_Py_IsImmortal(ptr noundef %3)
  %5 = icmp ne i32 %4, 0
  br i1 %5, label %6, label %7

6:                                                ; preds = %1
  br label %16

7:                                                ; preds = %1
  %8 = load ptr, ptr %2, align 8, !tbaa !41
  %9 = getelementptr inbounds nuw %struct._object, ptr %8, i32 0, i32 0
  %10 = getelementptr inbounds nuw %struct.anon, ptr %9, i32 0, i32 0
  %11 = load i32, ptr %10, align 8, !tbaa !66
  %12 = add i32 %11, -1
  store i32 %12, ptr %10, align 8, !tbaa !66
  %13 = icmp eq i32 %12, 0
  br i1 %13, label %14, label %16

14:                                               ; preds = %7
  %15 = load ptr, ptr %2, align 8, !tbaa !41
  call void @_Py_Dealloc(ptr noundef %15)
  br label %16

16:                                               ; preds = %6, %14, %7
  ret void
}

; Function Attrs: inlinehint nounwind uwtable
define internal void @Py_XDECREF(ptr noundef %0) #4 {
  %2 = alloca ptr, align 8
  store ptr %0, ptr %2, align 8, !tbaa !41
  %3 = load ptr, ptr %2, align 8, !tbaa !41
  %4 = icmp ne ptr %3, null
  br i1 %4, label %5, label %7

5:                                                ; preds = %1
  %6 = load ptr, ptr %2, align 8, !tbaa !41
  call void @Py_DECREF(ptr noundef %6)
  br label %7

7:                                                ; preds = %5, %1
  ret void
}

; Function Attrs: nounwind uwtable
define hidden void @PyInstructionSequence_Fini(ptr noundef %0) #0 {
  %2 = alloca ptr, align 8
  store ptr %0, ptr %2, align 8, !tbaa !4
  %3 = load ptr, ptr %2, align 8, !tbaa !4
  %4 = getelementptr inbounds nuw %struct.instruction_sequence, ptr %3, i32 0, i32 7
  %5 = load ptr, ptr %4, align 8, !tbaa !40
  call void @Py_XDECREF(ptr noundef %5)
  %6 = load ptr, ptr %2, align 8, !tbaa !4
  %7 = getelementptr inbounds nuw %struct.instruction_sequence, ptr %6, i32 0, i32 5
  %8 = load ptr, ptr %7, align 8, !tbaa !20
  call void @PyMem_Free(ptr noundef %8)
  %9 = load ptr, ptr %2, align 8, !tbaa !4
  %10 = getelementptr inbounds nuw %struct.instruction_sequence, ptr %9, i32 0, i32 5
  store ptr null, ptr %10, align 8, !tbaa !20
  %11 = load ptr, ptr %2, align 8, !tbaa !4
  %12 = getelementptr inbounds nuw %struct.instruction_sequence, ptr %11, i32 0, i32 1
  %13 = load ptr, ptr %12, align 8, !tbaa !24
  call void @PyMem_Free(ptr noundef %13)
  %14 = load ptr, ptr %2, align 8, !tbaa !4
  %15 = getelementptr inbounds nuw %struct.instruction_sequence, ptr %14, i32 0, i32 1
  store ptr null, ptr %15, align 8, !tbaa !24
  ret void
}

; Function Attrs: inlinehint nounwind uwtable
define internal ptr @_Py_TYPE(ptr noundef %0) #4 {
  %2 = alloca ptr, align 8
  store ptr %0, ptr %2, align 8, !tbaa !41
  %3 = load ptr, ptr %2, align 8, !tbaa !41
  %4 = getelementptr inbounds nuw %struct._object, ptr %3, i32 0, i32 1
  %5 = load ptr, ptr %4, align 8, !tbaa !67
  ret ptr %5
}

; Function Attrs: nounwind uwtable
define internal void @inst_seq_dealloc(ptr noundef %0) #0 {
  %2 = alloca ptr, align 8
  %3 = alloca ptr, align 8
  %4 = alloca i32, align 4
  store ptr %0, ptr %2, align 8, !tbaa !4
  %5 = load ptr, ptr %2, align 8, !tbaa !4
  call void @PyObject_GC_UnTrack(ptr noundef %5)
  br label %6

6:                                                ; preds = %1
  call void @llvm.lifetime.start.p0(i64 8, ptr %3) #6
  %7 = call ptr @PyThreadState_Get()
  store ptr %7, ptr %3, align 8, !tbaa !43
  %8 = load ptr, ptr %3, align 8, !tbaa !43
  %9 = getelementptr inbounds nuw %struct._ts, ptr %8, i32 0, i32 9
  %10 = load i32, ptr %9, align 4, !tbaa !45
  %11 = icmp sle i32 %10, 50
  br i1 %11, label %12, label %21

12:                                               ; preds = %6
  %13 = load ptr, ptr %2, align 8, !tbaa !4
  %14 = call ptr @_Py_TYPE(ptr noundef %13)
  %15 = getelementptr inbounds nuw %struct._typeobject, ptr %14, i32 0, i32 4
  %16 = load ptr, ptr %15, align 8, !tbaa !55
  %17 = icmp eq ptr %16, @inst_seq_dealloc
  br i1 %17, label %18, label %21

18:                                               ; preds = %12
  %19 = load ptr, ptr %3, align 8, !tbaa !43
  %20 = load ptr, ptr %2, align 8, !tbaa !4
  call void @_PyTrash_thread_deposit_object(ptr noundef %19, ptr noundef %20)
  store i32 2, ptr %4, align 4
  br label %44

21:                                               ; preds = %12, %6
  %22 = load ptr, ptr %3, align 8, !tbaa !43
  %23 = getelementptr inbounds nuw %struct._ts, ptr %22, i32 0, i32 9
  %24 = load i32, ptr %23, align 4, !tbaa !45
  %25 = add i32 %24, -1
  store i32 %25, ptr %23, align 4, !tbaa !45
  %26 = load ptr, ptr %2, align 8, !tbaa !4
  call void @PyInstructionSequence_Fini(ptr noundef %26)
  %27 = load ptr, ptr %2, align 8, !tbaa !4
  call void @PyObject_GC_Del(ptr noundef %27)
  %28 = load ptr, ptr %3, align 8, !tbaa !43
  %29 = getelementptr inbounds nuw %struct._ts, ptr %28, i32 0, i32 9
  %30 = load i32, ptr %29, align 4, !tbaa !45
  %31 = add i32 %30, 1
  store i32 %31, ptr %29, align 4, !tbaa !45
  %32 = load ptr, ptr %3, align 8, !tbaa !43
  %33 = getelementptr inbounds nuw %struct._ts, ptr %32, i32 0, i32 25
  %34 = load ptr, ptr %33, align 8, !tbaa !62
  %35 = icmp ne ptr %34, null
  br i1 %35, label %36, label %43

36:                                               ; preds = %21
  %37 = load ptr, ptr %3, align 8, !tbaa !43
  %38 = getelementptr inbounds nuw %struct._ts, ptr %37, i32 0, i32 9
  %39 = load i32, ptr %38, align 4, !tbaa !45
  %40 = icmp sgt i32 %39, 100
  br i1 %40, label %41, label %43

41:                                               ; preds = %36
  %42 = load ptr, ptr %3, align 8, !tbaa !43
  call void @_PyTrash_thread_destroy_chain(ptr noundef %42)
  br label %43

43:                                               ; preds = %41, %36, %21
  store i32 0, ptr %4, align 4
  br label %44

44:                                               ; preds = %43, %18
  call void @llvm.lifetime.end.p0(i64 8, ptr %3) #6
  %45 = load i32, ptr %4, align 4
  switch i32 %45, label %48 [
    i32 0, label %46
    i32 2, label %47
  ]

46:                                               ; preds = %44
  br label %47

47:                                               ; preds = %46, %44
  ret void

48:                                               ; preds = %44
  unreachable
}