; Function Attrs: nounwind uwtable
define internal void @inst_seq_dealloc(ptr noundef %0) #1 {
  tail call void @PyObject_GC_UnTrack(ptr noundef %0) #6
  %2 = tail call ptr @PyThreadState_Get() #6
  %3 = getelementptr inbounds nuw i8, ptr %2, i64 52
  %4 = load i32, ptr %3, align 4, !tbaa !36
  %5 = icmp slt i32 %4, 51
  br i1 %5, label %6, label %12

6:                                                ; preds = %1
  %7 = getelementptr i8, ptr %0, i64 8
  %.val = load ptr, ptr %7, align 8, !tbaa !47
  %8 = getelementptr inbounds nuw i8, ptr %.val, i64 48
  %9 = load ptr, ptr %8, align 8, !tbaa !48
  %10 = icmp eq ptr %9, @inst_seq_dealloc
  br i1 %10, label %11, label %12

11:                                               ; preds = %6
  tail call void @_PyTrash_thread_deposit_object(ptr noundef nonnull %2, ptr noundef nonnull %0) #6
  br label %32

12:                                               ; preds = %6, %1
  %13 = add i32 %4, -1
  store i32 %13, ptr %3, align 4, !tbaa !36
  %14 = getelementptr inbounds nuw i8, ptr %0, i64 56
  %15 = load ptr, ptr %14, align 8, !tbaa !34
  %.not.i.i = icmp eq ptr %15, null
  br i1 %.not.i.i, label %PyInstructionSequence_Fini.exit, label %16

16:                                               ; preds = %12
  %17 = load i32, ptr %15, align 8, !tbaa !35
  %.not.i.i.i = icmp sgt i32 %17, -1
  br i1 %.not.i.i.i, label %18, label %PyInstructionSequence_Fini.exit

18:                                               ; preds = %16
  %19 = add nsw i32 %17, -1
  store i32 %19, ptr %15, align 8, !tbaa !35
  %20 = icmp eq i32 %19, 0
  br i1 %20, label %21, label %PyInstructionSequence_Fini.exit

21:                                               ; preds = %18
  tail call void @_Py_Dealloc(ptr noundef nonnull %15) #6
  br label %PyInstructionSequence_Fini.exit

PyInstructionSequence_Fini.exit:                  ; preds = %12, %16, %18, %21
  %22 = getelementptr inbounds nuw i8, ptr %0, i64 40
  %23 = load ptr, ptr %22, align 8, !tbaa !15
  tail call void @PyMem_Free(ptr noundef %23) #6
  store ptr null, ptr %22, align 8, !tbaa !15
  %24 = getelementptr inbounds nuw i8, ptr %0, i64 16
  %25 = load ptr, ptr %24, align 8, !tbaa !20
  tail call void @PyMem_Free(ptr noundef %25) #6
  store ptr null, ptr %24, align 8, !tbaa !20
  tail call void @PyObject_GC_Del(ptr noundef nonnull %0) #6
  %26 = load i32, ptr %3, align 4, !tbaa !36
  %27 = add i32 %26, 1
  store i32 %27, ptr %3, align 4, !tbaa !36
  %28 = getelementptr inbounds nuw i8, ptr %2, i64 168
  %29 = load ptr, ptr %28, align 8, !tbaa !55
  %.not = icmp ne ptr %29, null
  %30 = icmp sgt i32 %27, 100
  %or.cond = select i1 %.not, i1 %30, i1 false
  br i1 %or.cond, label %31, label %32

31:                                               ; preds = %PyInstructionSequence_Fini.exit
  tail call void @_PyTrash_thread_destroy_chain(ptr noundef nonnull %2) #6
  br label %32

32:                                               ; preds = %PyInstructionSequence_Fini.exit, %31, %11
  ret void
}